; Function Attrs: mustprogress nofree norecurse nosync nounwind willreturn memory(read, inaccessiblemem: none) uwtable
define hidden noundef zeroext i1 @_ZNK15ClassFileParser21is_instance_ref_klassEv(ptr nocapture noundef nonnull readonly align 8 dereferenceable(440) %0) local_unnamed_addr #13 align 2 {
  %2 = getelementptr inbounds i8, ptr %0, i64 32
  %3 = load ptr, ptr %2, align 8
  %4 = icmp eq ptr %3, null
  br i1 %4, label %_ZNK15ClassFileParser35is_java_lang_ref_Reference_subclassEv.exit, label %5

5:                                                ; preds = %1
  %6 = getelementptr inbounds i8, ptr %3, i64 24
  %7 = load ptr, ptr %6, align 8
  %8 = load ptr, ptr getelementptr inbounds (i8, ptr @_ZN6Symbol11_vm_symbolsE, i64 368), align 8
  %9 = icmp eq ptr %7, %8
  br i1 %9, label %_ZNK15ClassFileParser35is_java_lang_ref_Reference_subclassEv.exit, label %10

10:                                               ; preds = %5
  %11 = getelementptr inbounds i8, ptr %3, i64 306
  %12 = load i8, ptr %11, align 2
  %13 = icmp ne i8 %12, 0
  br label %_ZNK15ClassFileParser35is_java_lang_ref_Reference_subclassEv.exit

_ZNK15ClassFileParser35is_java_lang_ref_Reference_subclassEv.exit: ; preds = %1, %5, %10
  %.0.i = phi i1 [ %13, %10 ], [ false, %1 ], [ true, %5 ]
  ret i1 %.0.i
}